; Function Attrs: mustprogress uwtable
define internal fastcc noundef zeroext i1 @"_ZN9__gnu_cxx5__ops15_Iter_comp_iterIZN3opt5cores20check_sat_hill_climbERK10ref_vectorI4expr11ast_managerEE3$_0EclIPPS5_SE_EEbT_T0_"(ptr %.0.val, ptr %.0.val1, ptr %.0.val3) unnamed_addr #4 align 2 {
  %1 = getelementptr inbounds nuw i8, ptr %.0.val, i64 72
  %2 = tail call noundef ptr @_ZNK7obj_mapI4expr8rationalE9find_coreEPS0_(ptr noundef nonnull align 8 dereferenceable(24) %1, ptr noundef %.0.val1)
  %3 = getelementptr inbounds nuw i8, ptr %2, i64 8
  %4 = tail call noundef ptr @_ZNK7obj_mapI4expr8rationalE9find_coreEPS0_(ptr noundef nonnull align 8 dereferenceable(24) %1, ptr noundef %.0.val3)
  %5 = getelementptr inbounds nuw i8, ptr %4, i64 8
  %6 = load ptr, ptr @_ZN8rational13g_mpq_managerE, align 8, !tbaa !21
  %7 = getelementptr inbounds nuw i8, ptr %4, i64 24
  %8 = getelementptr inbounds nuw i8, ptr %4, i64 28
  %9 = load i8, ptr %8, align 4
  %10 = and i8 %9, 1
  %11 = icmp eq i8 %10, 0
  %12 = load i32, ptr %7, align 8
  %13 = icmp eq i32 %12, 1
  %14 = select i1 %11, i1 %13, i1 false
  br i1 %14, label %15, label %41

15:                                               ; preds = %0
  %16 = getelementptr inbounds nuw i8, ptr %2, i64 24
  %17 = getelementptr inbounds nuw i8, ptr %2, i64 28
  %18 = load i8, ptr %17, align 4
  %19 = and i8 %18, 1
  %20 = icmp eq i8 %19, 0
  %21 = load i32, ptr %16, align 8
  %22 = icmp eq i32 %21, 1
  %23 = select i1 %20, i1 %22, i1 false
  br i1 %23, label %24, label %41

24:                                               ; preds = %15
  %25 = getelementptr inbounds nuw i8, ptr %4, i64 12
  %26 = load i8, ptr %25, align 4
  %27 = and i8 %26, 1
  %28 = icmp eq i8 %27, 0
  br i1 %28, label %29, label %38

29:                                               ; preds = %24
  %30 = getelementptr inbounds nuw i8, ptr %2, i64 12
  %31 = load i8, ptr %30, align 4
  %32 = and i8 %31, 1
  %33 = icmp eq i8 %32, 0
  br i1 %33, label %34, label %38

34:                                               ; preds = %29
  %35 = load i32, ptr %5, align 8, !tbaa !17
  %36 = load i32, ptr %3, align 8, !tbaa !17
  %37 = icmp slt i32 %35, %36
  br label %"_ZZN3opt5cores20check_sat_hill_climbERK10ref_vectorI4expr11ast_managerEENK3$_0clEPS2_S8_.exit"

38:                                               ; preds = %29, %24
  %39 = tail call noundef i32 @_ZN11mpz_managerILb1EE11big_compareERK3mpzS3_(ptr noundef nonnull align 8 dereferenceable(728) %6, ptr noundef nonnull align 8 dereferenceable(32) %5, ptr noundef nonnull align 8 dereferenceable(32) %3)
  %40 = icmp slt i32 %39, 0
  br label %"_ZZN3opt5cores20check_sat_hill_climbERK10ref_vectorI4expr11ast_managerEENK3$_0clEPS2_S8_.exit"

41:                                               ; preds = %15, %0
  %42 = tail call noundef zeroext i1 @_ZN11mpq_managerILb1EE6rat_ltERK3mpqS3_(ptr noundef nonnull align 8 dereferenceable(728) %6, ptr noundef nonnull align 8 dereferenceable(32) %5, ptr noundef nonnull align 8 dereferenceable(32) %3)
  br label %"_ZZN3opt5cores20check_sat_hill_climbERK10ref_vectorI4expr11ast_managerEENK3$_0clEPS2_S8_.exit"

"_ZZN3opt5cores20check_sat_hill_climbERK10ref_vectorI4expr11ast_managerEENK3$_0clEPS2_S8_.exit": ; preds = %34, %38, %41
  %.0.i.i.i.i = phi i1 [ %42, %41 ], [ %37, %34 ], [ %40, %38 ]
  ret i1 %.0.i.i.i.i
}